target datalayout = "e-m:e-p270:32:32-p271:32:32-p272:64:64-i64:64-i128:128-f80:128-n8:16:32:64-S128"
target triple = "x86_64-pc-linux-gnu"

%struct._asn1_ctx_t = type { i32, i32, i8, ptr, ptr, ptr, ptr, ptr, %struct.anon, %struct.anon.2, %struct.anon.3, ptr }
%struct.anon = type { i32, i8, i8, i8, ptr, ptr, i32, i32, ptr, ptr, ptr, %union.anon }
%union.anon = type { %struct.anon.0 }
%struct.anon.0 = type { ptr }
%struct.anon.2 = type { ptr, ptr, ptr }
%struct.anon.3 = type { i32, i8, ptr, i32, i32, ptr, ptr, ptr, %union.anon.4 }
%union.anon.4 = type { %struct.anon.5 }
%struct.anon.5 = type { ptr }
%struct.mms_actx_private_data_t = type { i32, i32, i32, i32, i32, i16, ptr, i32, i32, i32, ptr, ptr, i32 }

@hf_mms_iec61850_timeofentry = internal global i32 0, align 4

; Function Attrs: null_pointer_is_valid sspstrong uwtable
define internal i32 @dissect_mms_T_data_binary_time(i1 noundef zeroext %0, ptr noundef %1, i32 noundef %2, ptr noundef %3, ptr noundef %4, i32 noundef %5) #0 {
  %7 = alloca i8, align 1
  %8 = alloca ptr, align 8
  %9 = alloca i32, align 4
  %10 = alloca ptr, align 8
  %11 = alloca ptr, align 8
  %12 = alloca i32, align 4
  %13 = alloca ptr, align 8
  %14 = zext i1 %0 to i8
  store i8 %14, ptr %7, align 1
  store ptr %1, ptr %8, align 8
  store i32 %2, ptr %9, align 4
  store ptr %3, ptr %10, align 8
  store ptr %4, ptr %11, align 8
  store i32 %5, ptr %12, align 4
  call void @llvm.lifetime.start.p0(i64 8, ptr %13) #8
  %15 = load ptr, ptr %10, align 8
  %16 = getelementptr inbounds nuw %struct._asn1_ctx_t, ptr %15, i32 0, i32 7
  %17 = load ptr, ptr %16, align 8
  store ptr %17, ptr %13, align 8
  %18 = load ptr, ptr %13, align 8
  %19 = icmp ne ptr %18, null
  br i1 %19, label %20, label %34

20:                                               ; preds = %6
  %21 = load ptr, ptr %13, align 8
  %22 = getelementptr inbounds nuw %struct.mms_actx_private_data_t, ptr %21, i32 0, i32 2
  %23 = load i32, ptr %22, align 8
  %24 = icmp eq i32 %23, 1
  br i1 %24, label %25, label %33

25:                                               ; preds = %20
  %26 = load ptr, ptr %13, align 8
  %27 = getelementptr inbounds nuw %struct.mms_actx_private_data_t, ptr %26, i32 0, i32 3
  %28 = load i32, ptr %27, align 4
  %29 = icmp eq i32 %28, 4
  br i1 %29, label %30, label %32

30:                                               ; preds = %25
  %31 = load i32, ptr @hf_mms_iec61850_timeofentry, align 4
  store i32 %31, ptr %12, align 4
  br label %32

32:                                               ; preds = %30, %25
  br label %33

33:                                               ; preds = %32, %20
  br label %34

34:                                               ; preds = %33, %6
  %35 = load i8, ptr %7, align 1, !range !6, !noundef !7
  %36 = trunc i8 %35 to i1
  %37 = load ptr, ptr %8, align 8
  %38 = load i32, ptr %9, align 4
  %39 = load ptr, ptr %10, align 8
  %40 = load ptr, ptr %11, align 8
  %41 = load i32, ptr %12, align 4
  %42 = call i32 @dissect_mms_TimeOfDay(i1 noundef zeroext %36, ptr noundef %37, i32 noundef %38, ptr noundef %39, ptr noundef %40, i32 noundef %41)
  store i32 %42, ptr %9, align 4
  %43 = load i32, ptr %9, align 4
  call void @llvm.lifetime.end.p0(i64 8, ptr %13) #8
  ret i32 %43
}