; Function Attrs: null_pointer_is_valid sspstrong uwtable
define internal noundef i32 @dissect_mms_T_data_binary_time(i1 noundef zeroext %0, ptr noundef %1, i32 noundef returned %2, ptr noundef readonly captures(none) %3, ptr noundef %4, i32 noundef %5) #0 {
  %7 = getelementptr inbounds nuw i8, ptr %3, i64 48
  %8 = load ptr, ptr %7, align 8
  %.not = icmp eq ptr %8, null
  br i1 %.not, label %18, label %9

9:                                                ; preds = %6
  %10 = getelementptr inbounds nuw i8, ptr %8, i64 8
  %11 = load i32, ptr %10, align 8
  %12 = icmp eq i32 %11, 1
  br i1 %12, label %13, label %18

13:                                               ; preds = %9
  %14 = getelementptr inbounds nuw i8, ptr %8, i64 12
  %15 = load i32, ptr %14, align 4
  %16 = icmp eq i32 %15, 4
  %17 = load i32, ptr @hf_mms_iec61850_timeofentry, align 4
  %spec.select = select i1 %16, i32 %17, i32 %5
  br label %18

18:                                               ; preds = %13, %9, %6
  %.0 = phi i32 [ %5, %9 ], [ %5, %6 ], [ %spec.select, %13 ]
  %19 = tail call i32 @dissect_mms_TimeOfDay(i1 zeroext poison, ptr noundef %1, i32 noundef %2, ptr noundef %3, ptr noundef %4, i32 noundef %.0)
  ret i32 %2
}